target datalayout = "e-m:e-p270:32:32-p271:32:32-p272:64:64-i64:64-i128:128-f80:128-n8:16:32:64-S128"
target triple = "x86_64-pc-linux-gnu"

%struct.expert_field = type { i32, i32 }

@hf_uftp_destlist = internal global i32 0, align 4
@hf_uftp_keyinfo = internal global i32 0, align 4
@hf_uftp_keyinfo_func = internal global i32 0, align 4
@hf_uftp_keyinfo_hlen = internal global i32 0, align 4
@hf_uftp_keyinfo_reserved = internal global i32 0, align 4
@hf_uftp_keyinfo_ivctr = internal global i32 0, align 4
@hf_uftp_keyinfo_destkey = internal global i32 0, align 4
@hf_uftp_keyinfo_destid = internal global i32 0, align 4
@hf_uftp_keyinfo_groupmaster = internal global i32 0, align 4
@ett_uftp_keyinfo = internal global i32 0, align 4
@ett_uftp_keyinfo_destkey = internal global i32 0, align 4
@ett_uftp_destlist = internal global i32 0, align 4
@ei_uftp_length_invalid = internal global %struct.expert_field zeroinitializer, align 4
@.str.427 = private unnamed_addr constant [19 x i8] c"Invalid length: %d\00", align 1
@.str.428 = private unnamed_addr constant [36 x i8] c"Invalid length, len = %d, hlen = %d\00", align 1
@.str.429 = private unnamed_addr constant [14 x i8] c"%d bytes (%d)\00", align 1

; Function Attrs: null_pointer_is_valid sspstrong uwtable
define internal void @dissect_uftp_keyinfo(ptr noundef %0, ptr noundef %1, ptr noundef %2) #0 {
  %4 = alloca ptr, align 8
  %5 = alloca ptr, align 8
  %6 = alloca ptr, align 8
  %7 = alloca ptr, align 8
  %8 = alloca ptr, align 8
  %9 = alloca ptr, align 8
  %10 = alloca ptr, align 8
  %11 = alloca ptr, align 8
  %12 = alloca ptr, align 8
  %13 = alloca i32, align 4
  %14 = alloca i32, align 4
  %15 = alloca i8, align 1
  %16 = alloca i8, align 1
  %17 = alloca i32, align 4
  store ptr %0, ptr %4, align 8
  store ptr %1, ptr %5, align 8
  store ptr %2, ptr %6, align 8
  call void @llvm.lifetime.start.p0(i64 8, ptr %7) #5
  store ptr null, ptr %7, align 8
  call void @llvm.lifetime.start.p0(i64 8, ptr %8) #5
  store ptr null, ptr %8, align 8
  call void @llvm.lifetime.start.p0(i64 8, ptr %9) #5
  store ptr null, ptr %9, align 8
  call void @llvm.lifetime.start.p0(i64 8, ptr %10) #5
  store ptr null, ptr %10, align 8
  call void @llvm.lifetime.start.p0(i64 8, ptr %11) #5
  store ptr null, ptr %11, align 8
  call void @llvm.lifetime.start.p0(i64 8, ptr %12) #5
  store ptr null, ptr %12, align 8
  call void @llvm.lifetime.start.p0(i64 4, ptr %13) #5
  store i32 0, ptr %13, align 4
  call void @llvm.lifetime.start.p0(i64 4, ptr %14) #5
  call void @llvm.lifetime.start.p0(i64 1, ptr %15) #5
  call void @llvm.lifetime.start.p0(i64 1, ptr %16) #5
  %18 = load ptr, ptr %4, align 8
  %19 = call i32 @tvb_reported_length(ptr noundef %18)
  %20 = icmp ult i32 %19, 12
  br i1 %20, label %21, label %29

21:                                               ; preds = %3
  %22 = load ptr, ptr %6, align 8
  %23 = load ptr, ptr %5, align 8
  %24 = load ptr, ptr %4, align 8
  %25 = load i32, ptr %13, align 4
  %26 = load ptr, ptr %4, align 8
  %27 = call i32 @tvb_reported_length(ptr noundef %26)
  %28 = call ptr (ptr, ptr, ptr, ptr, i32, i32, ptr, ...) @proto_tree_add_expert_format(ptr noundef %22, ptr noundef %23, ptr noundef @ei_uftp_length_invalid, ptr noundef %24, i32 noundef %25, i32 noundef -1, ptr noundef @.str.427, i32 noundef %27)
  store i32 1, ptr %17, align 4
  br label %145

29:                                               ; preds = %3
  %30 = load ptr, ptr %4, align 8
  %31 = call zeroext i8 @tvb_get_uint8(ptr noundef %30, i32 noundef 1)
  %32 = zext i8 %31 to i32
  %33 = mul i32 %32, 4
  store i32 %33, ptr %14, align 4
  %34 = load ptr, ptr %4, align 8
  %35 = call i32 @tvb_reported_length(ptr noundef %34)
  %36 = load i32, ptr %14, align 4
  %37 = icmp slt i32 %35, %36
  br i1 %37, label %41, label %38

38:                                               ; preds = %29
  %39 = load i32, ptr %14, align 4
  %40 = icmp slt i32 %39, 12
  br i1 %40, label %41, label %50

41:                                               ; preds = %38, %29
  %42 = load ptr, ptr %6, align 8
  %43 = load ptr, ptr %5, align 8
  %44 = load ptr, ptr %4, align 8
  %45 = load i32, ptr %13, align 4
  %46 = load ptr, ptr %4, align 8
  %47 = call i32 @tvb_reported_length(ptr noundef %46)
  %48 = load i32, ptr %14, align 4
  %49 = call ptr (ptr, ptr, ptr, ptr, i32, i32, ptr, ...) @proto_tree_add_expert_format(ptr noundef %42, ptr noundef %43, ptr noundef @ei_uftp_length_invalid, ptr noundef %44, i32 noundef %45, i32 noundef -1, ptr noundef @.str.428, i32 noundef %47, i32 noundef %48)
  store i32 1, ptr %17, align 4
  br label %145

50:                                               ; preds = %38
  %51 = load ptr, ptr %6, align 8
  %52 = load i32, ptr @hf_uftp_keyinfo, align 4
  %53 = load ptr, ptr %4, align 8
  %54 = load i32, ptr %13, align 4
  %55 = call ptr @proto_tree_add_item(ptr noundef %51, i32 noundef %52, ptr noundef %53, i32 noundef %54, i32 noundef -1, i32 noundef 0)
  store ptr %55, ptr %7, align 8
  %56 = load ptr, ptr %7, align 8
  %57 = load i32, ptr @ett_uftp_keyinfo, align 4
  %58 = call ptr @proto_item_add_subtree(ptr noundef %56, i32 noundef %57)
  store ptr %58, ptr %10, align 8
  %59 = load ptr, ptr %10, align 8
  %60 = load i32, ptr @hf_uftp_keyinfo_func, align 4
  %61 = load ptr, ptr %4, align 8
  %62 = load i32, ptr %13, align 4
  %63 = call ptr @proto_tree_add_item(ptr noundef %59, i32 noundef %60, ptr noundef %61, i32 noundef %62, i32 noundef 1, i32 noundef 0)
  %64 = load i32, ptr %13, align 4
  %65 = add i32 %64, 1
  store i32 %65, ptr %13, align 4
  %66 = load ptr, ptr %10, align 8
  %67 = load i32, ptr @hf_uftp_keyinfo_hlen, align 4
  %68 = load ptr, ptr %4, align 8
  %69 = load i32, ptr %13, align 4
  %70 = load i32, ptr %14, align 4
  %71 = load i32, ptr %14, align 4
  %72 = load i32, ptr %14, align 4
  %73 = sdiv i32 %72, 4
  %74 = call ptr (ptr, i32, ptr, i32, i32, i32, ptr, ...) @proto_tree_add_uint_format_value(ptr noundef %66, i32 noundef %67, ptr noundef %68, i32 noundef %69, i32 noundef 1, i32 noundef %70, ptr noundef @.str.429, i32 noundef %71, i32 noundef %73)
  %75 = load i32, ptr %13, align 4
  %76 = add i32 %75, 1
  store i32 %76, ptr %13, align 4
  %77 = load ptr, ptr %10, align 8
  %78 = load i32, ptr @hf_uftp_keyinfo_reserved, align 4
  %79 = load ptr, ptr %4, align 8
  %80 = load i32, ptr %13, align 4
  %81 = call ptr @proto_tree_add_item(ptr noundef %77, i32 noundef %78, ptr noundef %79, i32 noundef %80, i32 noundef 2, i32 noundef 0)
  %82 = load i32, ptr %13, align 4
  %83 = add i32 %82, 2
  store i32 %83, ptr %13, align 4
  %84 = load ptr, ptr %10, align 8
  %85 = load i32, ptr @hf_uftp_keyinfo_ivctr, align 4
  %86 = load ptr, ptr %4, align 8
  %87 = load i32, ptr %13, align 4
  %88 = call ptr @proto_tree_add_item(ptr noundef %84, i32 noundef %85, ptr noundef %86, i32 noundef %87, i32 noundef 8, i32 noundef 0)
  %89 = load ptr, ptr %4, align 8
  %90 = call i32 @tvb_reported_length(ptr noundef %89)
  %91 = load i32, ptr %14, align 4
  %92 = sub i32 %90, %91
  %93 = udiv i32 %92, 52
  %94 = trunc i32 %93 to i8
  store i8 %94, ptr %15, align 1
  %95 = load i32, ptr %14, align 4
  store i32 %95, ptr %13, align 4
  %96 = load i8, ptr %15, align 1
  %97 = zext i8 %96 to i32
  %98 = icmp sgt i32 %97, 0
  br i1 %98, label %99, label %111

99:                                               ; preds = %50
  %100 = load ptr, ptr %10, align 8
  %101 = load i32, ptr @hf_uftp_destlist, align 4
  %102 = load ptr, ptr %4, align 8
  %103 = load i32, ptr %13, align 4
  %104 = load i8, ptr %15, align 1
  %105 = zext i8 %104 to i32
  %106 = mul i32 %105, 52
  %107 = call ptr @proto_tree_add_item(ptr noundef %100, i32 noundef %101, ptr noundef %102, i32 noundef %103, i32 noundef %106, i32 noundef 0)
  store ptr %107, ptr %8, align 8
  %108 = load ptr, ptr %8, align 8
  %109 = load i32, ptr @ett_uftp_destlist, align 4
  %110 = call ptr @proto_item_add_subtree(ptr noundef %108, i32 noundef %109)
  store ptr %110, ptr %11, align 8
  br label %111

111:                                              ; preds = %99, %50
  store i8 0, ptr %16, align 1
  br label %112

112:                                              ; preds = %141, %111
  %113 = load i8, ptr %16, align 1
  %114 = zext i8 %113 to i32
  %115 = load i8, ptr %15, align 1
  %116 = zext i8 %115 to i32
  %117 = icmp slt i32 %114, %116
  br i1 %117, label %118, label %144

118:                                              ; preds = %112
  %119 = load ptr, ptr %11, align 8
  %120 = load i32, ptr @hf_uftp_keyinfo_destkey, align 4
  %121 = load ptr, ptr %4, align 8
  %122 = load i32, ptr %13, align 4
  %123 = call ptr @proto_tree_add_item(ptr noundef %119, i32 noundef %120, ptr noundef %121, i32 noundef %122, i32 noundef 52, i32 noundef 0)
  store ptr %123, ptr %9, align 8
  %124 = load ptr, ptr %9, align 8
  %125 = load i32, ptr @ett_uftp_keyinfo_destkey, align 4
  %126 = call ptr @proto_item_add_subtree(ptr noundef %124, i32 noundef %125)
  store ptr %126, ptr %12, align 8
  %127 = load ptr, ptr %12, align 8
  %128 = load i32, ptr @hf_uftp_keyinfo_destid, align 4
  %129 = load ptr, ptr %4, align 8
  %130 = load i32, ptr %13, align 4
  %131 = call ptr @proto_tree_add_item(ptr noundef %127, i32 noundef %128, ptr noundef %129, i32 noundef %130, i32 noundef 4, i32 noundef 0)
  %132 = load i32, ptr %13, align 4
  %133 = add i32 %132, 4
  store i32 %133, ptr %13, align 4
  %134 = load ptr, ptr %12, align 8
  %135 = load i32, ptr @hf_uftp_keyinfo_groupmaster, align 4
  %136 = load ptr, ptr %4, align 8
  %137 = load i32, ptr %13, align 4
  %138 = call ptr @proto_tree_add_item(ptr noundef %134, i32 noundef %135, ptr noundef %136, i32 noundef %137, i32 noundef 48, i32 noundef 0)
  %139 = load i32, ptr %13, align 4
  %140 = add i32 %139, 48
  store i32 %140, ptr %13, align 4
  br label %141

141:                                              ; preds = %118
  %142 = load i8, ptr %16, align 1
  %143 = add i8 %142, 1
  store i8 %143, ptr %16, align 1
  br label %112, !llvm.loop !12

144:                                              ; preds = %112
  store i32 0, ptr %17, align 4
  br label %145

145:                                              ; preds = %144, %41, %21
  call void @llvm.lifetime.end.p0(i64 1, ptr %16) #5
  call void @llvm.lifetime.end.p0(i64 1, ptr %15) #5
  call void @llvm.lifetime.end.p0(i64 4, ptr %14) #5
  call void @llvm.lifetime.end.p0(i64 4, ptr %13) #5
  call void @llvm.lifetime.end.p0(i64 8, ptr %12) #5
  call void @llvm.lifetime.end.p0(i64 8, ptr %11) #5
  call void @llvm.lifetime.end.p0(i64 8, ptr %10) #5
  call void @llvm.lifetime.end.p0(i64 8, ptr %9) #5
  call void @llvm.lifetime.end.p0(i64 8, ptr %8) #5
  call void @llvm.lifetime.end.p0(i64 8, ptr %7) #5
  %146 = load i32, ptr %17, align 4
  switch i32 %146, label %148 [
    i32 0, label %147
    i32 1, label %147
  ]

147:                                              ; preds = %145, %145
  ret void

148:                                              ; preds = %145
  unreachable
}