; Function Attrs: null_pointer_is_valid sspstrong uwtable
define internal fastcc void @dissect_uftp_keyinfo(ptr noundef %0, ptr noundef %1, ptr noundef %2) unnamed_addr #0 {
  %4 = tail call i32 @tvb_reported_length(ptr noundef %0)
  %5 = icmp ult i32 %4, 12
  br i1 %5, label %6, label %9

6:                                                ; preds = %3
  %7 = tail call i32 @tvb_reported_length(ptr noundef %0)
  %8 = tail call ptr (ptr, ptr, ptr, ptr, i32, i32, ptr, ...) @proto_tree_add_expert_format(ptr noundef %2, ptr noundef %1, ptr noundef nonnull @ei_uftp_length_invalid, ptr noundef %0, i32 noundef 0, i32 noundef -1, ptr noundef nonnull @.str.427, i32 noundef %7)
  br label %.loopexit

9:                                                ; preds = %3
  %10 = tail call zeroext i8 @tvb_get_uint8(ptr noundef %0, i32 noundef 1)
  %11 = zext i8 %10 to i32
  %12 = shl nuw nsw i32 %11, 2
  %13 = tail call i32 @tvb_reported_length(ptr noundef %0)
  %14 = icmp slt i32 %13, %12
  %15 = icmp ult i8 %10, 3
  %or.cond = select i1 %14, i1 true, i1 %15
  br i1 %or.cond, label %16, label %19

16:                                               ; preds = %9
  %17 = tail call i32 @tvb_reported_length(ptr noundef %0)
  %18 = tail call ptr (ptr, ptr, ptr, ptr, i32, i32, ptr, ...) @proto_tree_add_expert_format(ptr noundef %2, ptr noundef %1, ptr noundef nonnull @ei_uftp_length_invalid, ptr noundef %0, i32 noundef 0, i32 noundef -1, ptr noundef nonnull @.str.428, i32 noundef %17, i32 noundef %12)
  br label %.loopexit

19:                                               ; preds = %9
  %20 = load i32, ptr @hf_uftp_keyinfo, align 4
  %21 = tail call ptr @proto_tree_add_item(ptr noundef %2, i32 noundef %20, ptr noundef %0, i32 noundef 0, i32 noundef -1, i32 noundef 0)
  %22 = load i32, ptr @ett_uftp_keyinfo, align 4
  %23 = tail call ptr @proto_item_add_subtree(ptr noundef %21, i32 noundef %22)
  %24 = load i32, ptr @hf_uftp_keyinfo_func, align 4
  %25 = tail call ptr @proto_tree_add_item(ptr noundef %23, i32 noundef %24, ptr noundef %0, i32 noundef 0, i32 noundef 1, i32 noundef 0)
  %26 = load i32, ptr @hf_uftp_keyinfo_hlen, align 4
  %27 = tail call ptr (ptr, i32, ptr, i32, i32, i32, ptr, ...) @proto_tree_add_uint_format_value(ptr noundef %23, i32 noundef %26, ptr noundef %0, i32 noundef 1, i32 noundef 1, i32 noundef %12, ptr noundef nonnull @.str.429, i32 noundef %12, i32 noundef %11)
  %28 = load i32, ptr @hf_uftp_keyinfo_reserved, align 4
  %29 = tail call ptr @proto_tree_add_item(ptr noundef %23, i32 noundef %28, ptr noundef %0, i32 noundef 2, i32 noundef 2, i32 noundef 0)
  %30 = load i32, ptr @hf_uftp_keyinfo_ivctr, align 4
  %31 = tail call ptr @proto_tree_add_item(ptr noundef %23, i32 noundef %30, ptr noundef %0, i32 noundef 4, i32 noundef 8, i32 noundef 0)
  %32 = tail call i32 @tvb_reported_length(ptr noundef %0)
  %33 = sub i32 %32, %12
  %34 = udiv i32 %33, 52
  %35 = and i32 %34, 255
  %.not = icmp eq i32 %35, 0
  br i1 %.not, label %.loopexit, label %.lr.ph.preheader

.lr.ph.preheader:                                 ; preds = %19
  %36 = load i32, ptr @hf_uftp_destlist, align 4
  %37 = mul nuw nsw i32 %35, 52
  %38 = tail call ptr @proto_tree_add_item(ptr noundef %23, i32 noundef %36, ptr noundef %0, i32 noundef %12, i32 noundef %37, i32 noundef 0)
  %39 = load i32, ptr @ett_uftp_destlist, align 4
  %40 = tail call ptr @proto_item_add_subtree(ptr noundef %38, i32 noundef %39)
  br label %.lr.ph

.lr.ph:                                           ; preds = %.lr.ph.preheader, %.lr.ph
  %indvars.iv = phi i32 [ 0, %.lr.ph.preheader ], [ %indvars.iv.next, %.lr.ph ]
  %.06266 = phi i32 [ %12, %.lr.ph.preheader ], [ %50, %.lr.ph ]
  %41 = load i32, ptr @hf_uftp_keyinfo_destkey, align 4
  %42 = tail call ptr @proto_tree_add_item(ptr noundef %40, i32 noundef %41, ptr noundef %0, i32 noundef %.06266, i32 noundef 52, i32 noundef 0)
  %43 = load i32, ptr @ett_uftp_keyinfo_destkey, align 4
  %44 = tail call ptr @proto_item_add_subtree(ptr noundef %42, i32 noundef %43)
  %45 = load i32, ptr @hf_uftp_keyinfo_destid, align 4
  %46 = tail call ptr @proto_tree_add_item(ptr noundef %44, i32 noundef %45, ptr noundef %0, i32 noundef %.06266, i32 noundef 4, i32 noundef 0)
  %47 = add nuw nsw i32 %.06266, 4
  %48 = load i32, ptr @hf_uftp_keyinfo_groupmaster, align 4
  %49 = tail call ptr @proto_tree_add_item(ptr noundef %44, i32 noundef %48, ptr noundef %0, i32 noundef %47, i32 noundef 48, i32 noundef 0)
  %50 = add nuw nsw i32 %.06266, 52
  %indvars.iv.next = add nuw nsw i32 %indvars.iv, 1
  %exitcond.not = icmp eq i32 %indvars.iv.next, %35
  br i1 %exitcond.not, label %.loopexit, label %.lr.ph, !llvm.loop !11

.loopexit:                                        ; preds = %.lr.ph, %19, %16, %6
  ret void
}